target datalayout = "e-m:e-p270:32:32-p271:32:32-p272:64:64-i64:64-i128:128-f80:128-n8:16:32:64-S128"
target triple = "x86_64-pc-linux-gnu"

%"struct.Luau::CodeGen::A64::RegisterA64" = type { i8 }

; Function Attrs: mustprogress uwtable
define internal void @_ZN4Luau7CodeGen3A64L13emitAddOffsetERNS1_18AssemblyBuilderA64ENS1_11RegisterA64ES4_m(ptr noundef nonnull align 8 dereferenceable(176) %0, i8 %1, i8 %2, i64 noundef %3) #0 {
  %5 = alloca %"struct.Luau::CodeGen::A64::RegisterA64", align 1
  %6 = alloca %"struct.Luau::CodeGen::A64::RegisterA64", align 1
  %7 = alloca ptr, align 8
  %8 = alloca i64, align 8
  %9 = alloca %"struct.Luau::CodeGen::A64::RegisterA64", align 1
  %10 = alloca %"struct.Luau::CodeGen::A64::RegisterA64", align 1
  %11 = alloca %"struct.Luau::CodeGen::A64::RegisterA64", align 1
  %12 = alloca %"struct.Luau::CodeGen::A64::RegisterA64", align 1
  %13 = alloca %"struct.Luau::CodeGen::A64::RegisterA64", align 1
  %14 = alloca %"struct.Luau::CodeGen::A64::RegisterA64", align 1
  %15 = getelementptr inbounds nuw %"struct.Luau::CodeGen::A64::RegisterA64", ptr %5, i32 0, i32 0
  store i8 %1, ptr %15, align 1
  %16 = getelementptr inbounds nuw %"struct.Luau::CodeGen::A64::RegisterA64", ptr %6, i32 0, i32 0
  store i8 %2, ptr %16, align 1
  store ptr %0, ptr %7, align 8, !tbaa !9
  store i64 %3, ptr %8, align 8, !tbaa !65
  %17 = load i64, ptr %8, align 8, !tbaa !65
  %18 = icmp ule i64 %17, 4095
  br i1 %18, label %19, label %27

19:                                               ; preds = %4
  %20 = load ptr, ptr %7, align 8, !tbaa !9
  call void @llvm.memcpy.p0.p0.i64(ptr align 1 %9, ptr align 1 %5, i64 1, i1 false), !tbaa.struct !55
  call void @llvm.memcpy.p0.p0.i64(ptr align 1 %10, ptr align 1 %6, i64 1, i1 false), !tbaa.struct !55
  %21 = load i64, ptr %8, align 8, !tbaa !65
  %22 = trunc i64 %21 to i16
  %23 = getelementptr inbounds nuw %"struct.Luau::CodeGen::A64::RegisterA64", ptr %9, i32 0, i32 0
  %24 = load i8, ptr %23, align 1
  %25 = getelementptr inbounds nuw %"struct.Luau::CodeGen::A64::RegisterA64", ptr %10, i32 0, i32 0
  %26 = load i8, ptr %25, align 1
  call void @_ZN4Luau7CodeGen3A6418AssemblyBuilderA643addENS1_11RegisterA64ES3_t(ptr noundef nonnull align 8 dereferenceable(176) %20, i8 %24, i8 %26, i16 noundef zeroext %22)
  br label %40

27:                                               ; preds = %4
  %28 = load ptr, ptr %7, align 8, !tbaa !9
  call void @llvm.memcpy.p0.p0.i64(ptr align 1 %11, ptr align 1 %5, i64 1, i1 false), !tbaa.struct !55
  %29 = load i64, ptr %8, align 8, !tbaa !65
  %30 = trunc i64 %29 to i32
  %31 = getelementptr inbounds nuw %"struct.Luau::CodeGen::A64::RegisterA64", ptr %11, i32 0, i32 0
  %32 = load i8, ptr %31, align 1
  call void @_ZN4Luau7CodeGen3A6418AssemblyBuilderA643movENS1_11RegisterA64Ei(ptr noundef nonnull align 8 dereferenceable(176) %28, i8 %32, i32 noundef %30)
  %33 = load ptr, ptr %7, align 8, !tbaa !9
  call void @llvm.memcpy.p0.p0.i64(ptr align 1 %12, ptr align 1 %5, i64 1, i1 false), !tbaa.struct !55
  call void @llvm.memcpy.p0.p0.i64(ptr align 1 %13, ptr align 1 %5, i64 1, i1 false), !tbaa.struct !55
  call void @llvm.memcpy.p0.p0.i64(ptr align 1 %14, ptr align 1 %6, i64 1, i1 false), !tbaa.struct !55
  %34 = getelementptr inbounds nuw %"struct.Luau::CodeGen::A64::RegisterA64", ptr %12, i32 0, i32 0
  %35 = load i8, ptr %34, align 1
  %36 = getelementptr inbounds nuw %"struct.Luau::CodeGen::A64::RegisterA64", ptr %13, i32 0, i32 0
  %37 = load i8, ptr %36, align 1
  %38 = getelementptr inbounds nuw %"struct.Luau::CodeGen::A64::RegisterA64", ptr %14, i32 0, i32 0
  %39 = load i8, ptr %38, align 1
  call void @_ZN4Luau7CodeGen3A6418AssemblyBuilderA643addENS1_11RegisterA64ES3_S3_i(ptr noundef nonnull align 8 dereferenceable(176) %33, i8 %35, i8 %37, i8 %39, i32 noundef 0)
  br label %40

40:                                               ; preds = %27, %19
  ret void
}