; Function Attrs: mustprogress uwtable
define internal fastcc void @_ZN4Luau7CodeGen3A64L13emitAddOffsetERNS1_18AssemblyBuilderA64ENS1_11RegisterA64ES4_m(ptr noundef nonnull align 8 dereferenceable(176) %0, i8 %1, i8 %2, i64 noundef range(i64 -36507222016, 36507222000) %3) unnamed_addr #0 {
  %5 = icmp ult i64 %3, 4096
  br i1 %5, label %6, label %8

6:                                                ; preds = %4
  %7 = trunc nuw nsw i64 %3 to i16
  tail call void @_ZN4Luau7CodeGen3A6418AssemblyBuilderA643addENS1_11RegisterA64ES3_t(ptr noundef nonnull align 8 dereferenceable(176) %0, i8 %1, i8 %2, i16 noundef zeroext %7)
  br label %10

8:                                                ; preds = %4
  %9 = trunc i64 %3 to i32
  tail call void @_ZN4Luau7CodeGen3A6418AssemblyBuilderA643movENS1_11RegisterA64Ei(ptr noundef nonnull align 8 dereferenceable(176) %0, i8 %1, i32 noundef %9)
  tail call void @_ZN4Luau7CodeGen3A6418AssemblyBuilderA643addENS1_11RegisterA64ES3_S3_i(ptr noundef nonnull align 8 dereferenceable(176) %0, i8 %1, i8 %1, i8 %2, i32 noundef 0)
  br label %10

10:                                               ; preds = %8, %6
  ret void
}